target datalayout = "e-m:e-p270:32:32-p271:32:32-p272:64:64-i64:64-i128:128-f80:128-n8:16:32:64-S128"
target triple = "x86_64-pc-linux-gnu"

%"class.llvm::SmallVectorBase" = type { ptr, i32, i32 }
%"class.llvm::Register" = type { i32 }
%"struct.llvm::LaneBitmask" = type { i64 }
%"class.llvm::SlotIndex" = type { %"class.llvm::PointerIntPair.238" }
%"class.llvm::PointerIntPair.238" = type { %"struct.llvm::detail::PunnedPointer.239" }
%"struct.llvm::detail::PunnedPointer.239" = type { [8 x i8] }
%"class.llvm::VNInfo" = type { i32, [4 x i8], %"class.llvm::SlotIndex" }
%"class.(anonymous namespace)::JoinVals" = type { ptr, %"class.llvm::Register", i32, %"struct.llvm::LaneBitmask", i8, i8, ptr, ptr, ptr, ptr, ptr, %"class.llvm::SmallVector.559", %"class.llvm::SmallVector.564" }
%"class.llvm::SmallVector.559" = type { %"class.llvm::SmallVectorImpl.560", %"struct.llvm::SmallVectorStorage.563" }
%"class.llvm::SmallVectorImpl.560" = type { %"class.llvm::SmallVectorTemplateBase.561" }
%"class.llvm::SmallVectorTemplateBase.561" = type { %"class.llvm::SmallVectorTemplateCommon.562" }
%"class.llvm::SmallVectorTemplateCommon.562" = type { %"class.llvm::SmallVectorBase" }
%"struct.llvm::SmallVectorStorage.563" = type { [32 x i8] }
%"class.llvm::SmallVector.564" = type { %"class.llvm::SmallVectorImpl.565", %"struct.llvm::SmallVectorStorage.568" }
%"class.llvm::SmallVectorImpl.565" = type { %"class.llvm::SmallVectorTemplateBase.566" }
%"class.llvm::SmallVectorTemplateBase.566" = type { %"class.llvm::SmallVectorTemplateCommon.567" }
%"class.llvm::SmallVectorTemplateCommon.567" = type { %"class.llvm::SmallVectorBase" }
%"struct.llvm::SmallVectorStorage.568" = type { [384 x i8] }
%"struct.(anonymous namespace)::JoinVals::Val" = type <{ i32, [4 x i8], %"struct.llvm::LaneBitmask", %"struct.llvm::LaneBitmask", ptr, ptr, i8, i8, i8, i8, [4 x i8] }>

; Function Attrs: mustprogress nounwind uwtable
define internal noundef ptr @_ZN4llvm25SmallVectorTemplateCommonIN12_GLOBAL__N_18JoinVals3ValEvE5beginEv(ptr noundef nonnull align 8 dereferenceable(16) %0) #1 align 2 {
  %2 = alloca ptr, align 8
  store ptr %0, ptr %2, align 8
  %3 = load ptr, ptr %2, align 8
  %4 = getelementptr inbounds nuw %"class.llvm::SmallVectorBase", ptr %3, i32 0, i32 0
  %5 = load ptr, ptr %4, align 8
  ret ptr %5
}

; Function Attrs: mustprogress nounwind uwtable
define internal noundef nonnull align 8 dereferenceable(44) ptr @_ZN4llvm25SmallVectorTemplateCommonIN12_GLOBAL__N_18JoinVals3ValEvEixEm(ptr noundef nonnull align 8 dereferenceable(16) %0, i64 noundef %1) #1 align 2 {
  %3 = alloca ptr, align 8
  %4 = alloca i64, align 8
  store ptr %0, ptr %3, align 8
  store i64 %1, ptr %4, align 8
  %5 = load ptr, ptr %3, align 8
  %6 = call noundef ptr @_ZN4llvm25SmallVectorTemplateCommonIN12_GLOBAL__N_18JoinVals3ValEvE5beginEv(ptr noundef nonnull align 8 dereferenceable(16) %5)
  %7 = load i64, ptr %4, align 8
  %8 = getelementptr inbounds %"struct.(anonymous namespace)::JoinVals::Val", ptr %6, i64 %7
  ret ptr %8
}

; Function Attrs: mustprogress nounwind uwtable
define internal noundef zeroext i1 @_ZN12_GLOBAL__N_18JoinVals13isPrunedValueEjRS0_(ptr noundef nonnull align 8 dereferenceable(520) %0, i32 noundef %1, ptr noundef nonnull align 8 dereferenceable(520) %2) #1 align 2 {
  %4 = alloca i1, align 1
  %5 = alloca ptr, align 8
  %6 = alloca i32, align 4
  %7 = alloca ptr, align 8
  %8 = alloca ptr, align 8
  store ptr %0, ptr %5, align 8
  store i32 %1, ptr %6, align 4
  store ptr %2, ptr %7, align 8
  %9 = load ptr, ptr %5, align 8
  %10 = getelementptr inbounds nuw %"class.(anonymous namespace)::JoinVals", ptr %9, i32 0, i32 12
  %11 = load i32, ptr %6, align 4
  %12 = zext i32 %11 to i64
  %13 = call noundef nonnull align 8 dereferenceable(44) ptr @_ZN4llvm25SmallVectorTemplateCommonIN12_GLOBAL__N_18JoinVals3ValEvEixEm(ptr noundef nonnull align 8 dereferenceable(16) %10, i64 noundef %12)
  store ptr %13, ptr %8, align 8
  %14 = load ptr, ptr %8, align 8
  %15 = getelementptr inbounds nuw %"struct.(anonymous namespace)::JoinVals::Val", ptr %14, i32 0, i32 7
  %16 = load i8, ptr %15, align 1
  %17 = trunc i8 %16 to i1
  br i1 %17, label %23, label %18

18:                                               ; preds = %3
  %19 = load ptr, ptr %8, align 8
  %20 = getelementptr inbounds nuw %"struct.(anonymous namespace)::JoinVals::Val", ptr %19, i32 0, i32 8
  %21 = load i8, ptr %20, align 2
  %22 = trunc i8 %21 to i1
  br i1 %22, label %23, label %28

23:                                               ; preds = %18, %3
  %24 = load ptr, ptr %8, align 8
  %25 = getelementptr inbounds nuw %"struct.(anonymous namespace)::JoinVals::Val", ptr %24, i32 0, i32 7
  %26 = load i8, ptr %25, align 1
  %27 = trunc i8 %26 to i1
  store i1 %27, ptr %4, align 1
  br label %60

28:                                               ; preds = %18
  %29 = load ptr, ptr %8, align 8
  %30 = getelementptr inbounds nuw %"struct.(anonymous namespace)::JoinVals::Val", ptr %29, i32 0, i32 0
  %31 = load i32, ptr %30, align 8
  %32 = icmp ne i32 %31, 1
  br i1 %32, label %33, label %43

33:                                               ; preds = %28
  %34 = load ptr, ptr %8, align 8
  %35 = getelementptr inbounds nuw %"struct.(anonymous namespace)::JoinVals::Val", ptr %34, i32 0, i32 0
  %36 = load i32, ptr %35, align 8
  %37 = icmp ne i32 %36, 2
  br i1 %37, label %38, label %43

38:                                               ; preds = %33
  %39 = load ptr, ptr %8, align 8
  %40 = getelementptr inbounds nuw %"struct.(anonymous namespace)::JoinVals::Val", ptr %39, i32 0, i32 7
  %41 = load i8, ptr %40, align 1
  %42 = trunc i8 %41 to i1
  store i1 %42, ptr %4, align 1
  br label %60

43:                                               ; preds = %33, %28
  %44 = load ptr, ptr %8, align 8
  %45 = getelementptr inbounds nuw %"struct.(anonymous namespace)::JoinVals::Val", ptr %44, i32 0, i32 8
  store i8 1, ptr %45, align 2
  %46 = load ptr, ptr %7, align 8
  %47 = load ptr, ptr %8, align 8
  %48 = getelementptr inbounds nuw %"struct.(anonymous namespace)::JoinVals::Val", ptr %47, i32 0, i32 5
  %49 = load ptr, ptr %48, align 8
  %50 = getelementptr inbounds nuw %"class.llvm::VNInfo", ptr %49, i32 0, i32 0
  %51 = load i32, ptr %50, align 8
  %52 = call noundef zeroext i1 @_ZN12_GLOBAL__N_18JoinVals13isPrunedValueEjRS0_(ptr noundef nonnull align 8 dereferenceable(520) %46, i32 noundef %51, ptr noundef nonnull align 8 dereferenceable(520) %9)
  %53 = load ptr, ptr %8, align 8
  %54 = getelementptr inbounds nuw %"struct.(anonymous namespace)::JoinVals::Val", ptr %53, i32 0, i32 7
  %55 = zext i1 %52 to i8
  store i8 %55, ptr %54, align 1
  %56 = load ptr, ptr %8, align 8
  %57 = getelementptr inbounds nuw %"struct.(anonymous namespace)::JoinVals::Val", ptr %56, i32 0, i32 7
  %58 = load i8, ptr %57, align 1
  %59 = trunc i8 %58 to i1
  store i1 %59, ptr %4, align 1
  br label %60

60:                                               ; preds = %43, %38, %23
  %61 = load i1, ptr %4, align 1
  ret i1 %61
}