; Function Attrs: mustprogress nofree nosync nounwind memory(readwrite, inaccessiblemem: none) uwtable
define internal fastcc noundef zeroext i1 @_ZN12_GLOBAL__N_18JoinVals13isPrunedValueEjRS0_(ptr nocapture noundef nonnull readonly align 8 dereferenceable(520) %0, i32 noundef %1, ptr nocapture noundef nonnull readonly align 8 dereferenceable(520) %2) unnamed_addr #16 align 2 {
  %4 = getelementptr inbounds nuw i8, ptr %0, i64 120
  %5 = zext i32 %1 to i64
  %.val = load ptr, ptr %4, align 8
  %6 = getelementptr inbounds %"struct.(anonymous namespace)::JoinVals::Val", ptr %.val, i64 %5
  %7 = getelementptr inbounds nuw i8, ptr %6, i64 41
  %8 = load i8, ptr %7, align 1
  %9 = trunc i8 %8 to i1
  br i1 %9, label %common.ret15, label %10

10:                                               ; preds = %3
  %11 = getelementptr inbounds nuw i8, ptr %6, i64 42
  %12 = load i8, ptr %11, align 2
  %13 = trunc i8 %12 to i1
  br i1 %13, label %common.ret15, label %14

14:                                               ; preds = %10
  %15 = load i32, ptr %6, align 8
  %.off = add i32 %15, -1
  %switch = icmp ult i32 %.off, 2
  br i1 %switch, label %16, label %common.ret15

common.ret15:                                     ; preds = %3, %10, %14, %16
  %common.ret15.op = phi i1 [ %20, %16 ], [ false, %14 ], [ false, %10 ], [ true, %3 ]
  ret i1 %common.ret15.op

16:                                               ; preds = %14
  store i8 1, ptr %11, align 2
  %17 = getelementptr inbounds nuw i8, ptr %6, i64 32
  %18 = load ptr, ptr %17, align 8
  %19 = load i32, ptr %18, align 8
  %20 = tail call fastcc noundef zeroext i1 @_ZN12_GLOBAL__N_18JoinVals13isPrunedValueEjRS0_(ptr noundef nonnull align 8 dereferenceable(520) %2, i32 noundef %19, ptr noundef nonnull align 8 dereferenceable(520) %0)
  %21 = zext i1 %20 to i8
  store i8 %21, ptr %7, align 1
  br label %common.ret15
}